target datalayout = "e-m:e-p270:32:32-p271:32:32-p272:64:64-i64:64-i128:128-f80:128-n8:16:32:64-S128"
target triple = "x86_64-pc-linux-gnu"

%struct.ARKodeMRIStepMemRec = type { ptr, ptr, i32, i32, i32, i32, i32, ptr, ptr, i32, i32, i32, ptr, i32, i32, i32, i32, i32, ptr, ptr, ptr, ptr, ptr, ptr, ptr, i32, ptr, i32, ptr, double, double, double, double, i32, double, double, double, double, double, double, i32, i64, i32, i32, i32, ptr, ptr, ptr, ptr, ptr, ptr, ptr, ptr, ptr, double, double, double, i64, i64, i64, i64, i64, i64, i32, i32, i32, double, double, ptr, i32, ptr, ptr }
%struct.ARKodeMemRec = type { ptr, double, ptr, i32, i32, double, double, ptr, i32, double, ptr, i32, i32, ptr, ptr, i32, ptr, ptr, i32, ptr, ptr, ptr, ptr, ptr, ptr, ptr, ptr, ptr, ptr, ptr, ptr, ptr, ptr, ptr, i32, ptr, ptr, i32, ptr, i32, ptr, ptr, ptr, ptr, ptr, ptr, ptr, ptr, ptr, ptr, ptr, ptr, ptr, ptr, ptr, ptr, ptr, ptr, ptr, ptr, ptr, ptr, ptr, ptr, ptr, ptr, i32, ptr, ptr, ptr, ptr, ptr, ptr, ptr, i32, ptr, ptr, ptr, i32, ptr, ptr, ptr, ptr, ptr, ptr, ptr, i32, i32, i32, i32, double, double, double, double, double, double, double, double, double, double, i32, ptr, i64, i32, i32, i32, i32, i64, i64, i32, i64, i64, i64, i64, i64, i64, i64, double, double, double, double, double, i32, double, double, i32, i32, i32, i32, i32, i32, i32, i32, ptr, i32, ptr, ptr, ptr, ptr, i32, i32, i32 }

@__func__.mriStep_NlsResidual = private unnamed_addr constant [20 x i8] c"mriStep_NlsResidual\00", align 1

; Function Attrs: nounwind uwtable
define i32 @mriStep_NlsResidual(ptr noundef %0, ptr noundef %1, ptr noundef %2) #0 {
  %4 = alloca i32, align 4
  %5 = alloca ptr, align 8
  %6 = alloca ptr, align 8
  %7 = alloca ptr, align 8
  %8 = alloca ptr, align 8
  %9 = alloca ptr, align 8
  %10 = alloca i32, align 4
  %11 = alloca [3 x double], align 16
  %12 = alloca [3 x ptr], align 16
  %13 = alloca i32, align 4
  store ptr %0, ptr %5, align 8, !tbaa !37
  store ptr %1, ptr %6, align 8, !tbaa !37
  store ptr %2, ptr %7, align 8, !tbaa !38
  call void @llvm.lifetime.start.p0(i64 8, ptr %8) #4
  call void @llvm.lifetime.start.p0(i64 8, ptr %9) #4
  call void @llvm.lifetime.start.p0(i64 4, ptr %10) #4
  call void @llvm.lifetime.start.p0(i64 24, ptr %11) #4
  call void @llvm.lifetime.start.p0(i64 24, ptr %12) #4
  %14 = load ptr, ptr %7, align 8, !tbaa !38
  %15 = call i32 @mriStep_AccessARKODEStepMem(ptr noundef %14, ptr noundef @__func__.mriStep_NlsResidual, ptr noundef %8, ptr noundef %9)
  store i32 %15, ptr %10, align 4, !tbaa !10
  %16 = load i32, ptr %10, align 4, !tbaa !10
  %17 = icmp ne i32 %16, 0
  br i1 %17, label %18, label %20

18:                                               ; preds = %3
  %19 = load i32, ptr %10, align 4, !tbaa !10
  store i32 %19, ptr %4, align 4
  store i32 1, ptr %13, align 4
  br label %105

20:                                               ; preds = %3
  %21 = load ptr, ptr %9, align 8, !tbaa !20
  %22 = getelementptr inbounds nuw %struct.ARKodeMRIStepMemRec, ptr %21, i32 0, i32 23
  %23 = load ptr, ptr %22, align 8, !tbaa !39
  %24 = load ptr, ptr %5, align 8, !tbaa !37
  %25 = load ptr, ptr %8, align 8, !tbaa !3
  %26 = getelementptr inbounds nuw %struct.ARKodeMemRec, ptr %25, i32 0, i32 75
  %27 = load ptr, ptr %26, align 8, !tbaa !40
  call void @N_VLinearSum(double noundef 1.000000e+00, ptr noundef %23, double noundef 1.000000e+00, ptr noundef %24, ptr noundef %27)
  %28 = load ptr, ptr %9, align 8, !tbaa !20
  %29 = getelementptr inbounds nuw %struct.ARKodeMRIStepMemRec, ptr %28, i32 0, i32 28
  %30 = load ptr, ptr %29, align 8, !tbaa !34
  %31 = load ptr, ptr %8, align 8, !tbaa !3
  %32 = getelementptr inbounds nuw %struct.ARKodeMemRec, ptr %31, i32 0, i32 98
  %33 = load double, ptr %32, align 8, !tbaa !46
  %34 = load ptr, ptr %8, align 8, !tbaa !3
  %35 = getelementptr inbounds nuw %struct.ARKodeMemRec, ptr %34, i32 0, i32 75
  %36 = load ptr, ptr %35, align 8, !tbaa !40
  %37 = load ptr, ptr %9, align 8, !tbaa !20
  %38 = getelementptr inbounds nuw %struct.ARKodeMRIStepMemRec, ptr %37, i32 0, i32 8
  %39 = load ptr, ptr %38, align 8, !tbaa !47
  %40 = load ptr, ptr %9, align 8, !tbaa !20
  %41 = getelementptr inbounds nuw %struct.ARKodeMRIStepMemRec, ptr %40, i32 0, i32 18
  %42 = load ptr, ptr %41, align 8, !tbaa !48
  %43 = load ptr, ptr %9, align 8, !tbaa !20
  %44 = getelementptr inbounds nuw %struct.ARKodeMRIStepMemRec, ptr %43, i32 0, i32 25
  %45 = load i32, ptr %44, align 8, !tbaa !49
  %46 = sext i32 %45 to i64
  %47 = getelementptr inbounds i32, ptr %42, i64 %46
  %48 = load i32, ptr %47, align 4, !tbaa !10
  %49 = sext i32 %48 to i64
  %50 = getelementptr inbounds ptr, ptr %39, i64 %49
  %51 = load ptr, ptr %50, align 8, !tbaa !37
  %52 = load ptr, ptr %8, align 8, !tbaa !3
  %53 = getelementptr inbounds nuw %struct.ARKodeMemRec, ptr %52, i32 0, i32 2
  %54 = load ptr, ptr %53, align 8, !tbaa !50
  %55 = call i32 %30(double noundef %33, ptr noundef %36, ptr noundef %51, ptr noundef %54)
  store i32 %55, ptr %10, align 4, !tbaa !10
  %56 = load ptr, ptr %9, align 8, !tbaa !20
  %57 = getelementptr inbounds nuw %struct.ARKodeMRIStepMemRec, ptr %56, i32 0, i32 58
  %58 = load i64, ptr %57, align 8, !tbaa !51
  %59 = add nsw i64 %58, 1
  store i64 %59, ptr %57, align 8, !tbaa !51
  %60 = load i32, ptr %10, align 4, !tbaa !10
  %61 = icmp slt i32 %60, 0
  br i1 %61, label %62, label %63

62:                                               ; preds = %20
  store i32 -8, ptr %4, align 4
  store i32 1, ptr %13, align 4
  br label %105

63:                                               ; preds = %20
  %64 = load i32, ptr %10, align 4, !tbaa !10
  %65 = icmp sgt i32 %64, 0
  br i1 %65, label %66, label %67

66:                                               ; preds = %63
  store i32 9, ptr %4, align 4
  store i32 1, ptr %13, align 4
  br label %105

67:                                               ; preds = %63
  %68 = getelementptr inbounds [3 x double], ptr %11, i64 0, i64 0
  store double 1.000000e+00, ptr %68, align 16, !tbaa !52
  %69 = load ptr, ptr %5, align 8, !tbaa !37
  %70 = getelementptr inbounds [3 x ptr], ptr %12, i64 0, i64 0
  store ptr %69, ptr %70, align 16, !tbaa !37
  %71 = getelementptr inbounds [3 x double], ptr %11, i64 0, i64 1
  store double -1.000000e+00, ptr %71, align 8, !tbaa !52
  %72 = load ptr, ptr %9, align 8, !tbaa !20
  %73 = getelementptr inbounds nuw %struct.ARKodeMRIStepMemRec, ptr %72, i32 0, i32 22
  %74 = load ptr, ptr %73, align 8, !tbaa !53
  %75 = getelementptr inbounds [3 x ptr], ptr %12, i64 0, i64 1
  store ptr %74, ptr %75, align 8, !tbaa !37
  %76 = load ptr, ptr %9, align 8, !tbaa !20
  %77 = getelementptr inbounds nuw %struct.ARKodeMRIStepMemRec, ptr %76, i32 0, i32 29
  %78 = load double, ptr %77, align 8, !tbaa !54
  %79 = fneg double %78
  %80 = getelementptr inbounds [3 x double], ptr %11, i64 0, i64 2
  store double %79, ptr %80, align 16, !tbaa !52
  %81 = load ptr, ptr %9, align 8, !tbaa !20
  %82 = getelementptr inbounds nuw %struct.ARKodeMRIStepMemRec, ptr %81, i32 0, i32 8
  %83 = load ptr, ptr %82, align 8, !tbaa !47
  %84 = load ptr, ptr %9, align 8, !tbaa !20
  %85 = getelementptr inbounds nuw %struct.ARKodeMRIStepMemRec, ptr %84, i32 0, i32 18
  %86 = load ptr, ptr %85, align 8, !tbaa !48
  %87 = load ptr, ptr %9, align 8, !tbaa !20
  %88 = getelementptr inbounds nuw %struct.ARKodeMRIStepMemRec, ptr %87, i32 0, i32 25
  %89 = load i32, ptr %88, align 8, !tbaa !49
  %90 = sext i32 %89 to i64
  %91 = getelementptr inbounds i32, ptr %86, i64 %90
  %92 = load i32, ptr %91, align 4, !tbaa !10
  %93 = sext i32 %92 to i64
  %94 = getelementptr inbounds ptr, ptr %83, i64 %93
  %95 = load ptr, ptr %94, align 8, !tbaa !37
  %96 = getelementptr inbounds [3 x ptr], ptr %12, i64 0, i64 2
  store ptr %95, ptr %96, align 16, !tbaa !37
  %97 = getelementptr inbounds [3 x double], ptr %11, i64 0, i64 0
  %98 = getelementptr inbounds [3 x ptr], ptr %12, i64 0, i64 0
  %99 = load ptr, ptr %6, align 8, !tbaa !37
  %100 = call i32 @N_VLinearCombination(i32 noundef 3, ptr noundef %97, ptr noundef %98, ptr noundef %99)
  store i32 %100, ptr %10, align 4, !tbaa !10
  %101 = load i32, ptr %10, align 4, !tbaa !10
  %102 = icmp ne i32 %101, 0
  br i1 %102, label %103, label %104

103:                                              ; preds = %67
  store i32 -28, ptr %4, align 4
  store i32 1, ptr %13, align 4
  br label %105

104:                                              ; preds = %67
  store i32 0, ptr %4, align 4
  store i32 1, ptr %13, align 4
  br label %105

105:                                              ; preds = %104, %103, %66, %62, %18
  call void @llvm.lifetime.end.p0(i64 24, ptr %12) #4
  call void @llvm.lifetime.end.p0(i64 24, ptr %11) #4
  call void @llvm.lifetime.end.p0(i64 4, ptr %10) #4
  call void @llvm.lifetime.end.p0(i64 8, ptr %9) #4
  call void @llvm.lifetime.end.p0(i64 8, ptr %8) #4
  %106 = load i32, ptr %4, align 4
  ret i32 %106
}