; Function Attrs: nounwind uwtable
define i32 @mriStep_NlsResidual(ptr noundef %0, ptr noundef %1, ptr noundef %2) #0 {
  %4 = alloca ptr, align 8
  %5 = alloca ptr, align 8
  %6 = alloca [3 x double], align 16
  %7 = alloca [3 x ptr], align 16
  call void @llvm.lifetime.start.p0(i64 8, ptr nonnull %4) #5
  call void @llvm.lifetime.start.p0(i64 8, ptr nonnull %5) #5
  call void @llvm.lifetime.start.p0(i64 24, ptr nonnull %6) #5
  call void @llvm.lifetime.start.p0(i64 24, ptr nonnull %7) #5
  %8 = call i32 @mriStep_AccessARKODEStepMem(ptr noundef %2, ptr noundef nonnull @__func__.mriStep_NlsResidual, ptr noundef nonnull %4, ptr noundef nonnull %5) #5
  %.not = icmp eq i32 %8, 0
  br i1 %.not, label %9, label %68

9:                                                ; preds = %3
  %10 = load ptr, ptr %5, align 8, !tbaa !14
  %11 = getelementptr inbounds nuw i8, ptr %10, i64 144
  %12 = load ptr, ptr %11, align 8, !tbaa !33
  %13 = load ptr, ptr %4, align 8, !tbaa !34
  %14 = getelementptr inbounds nuw i8, ptr %13, i64 584
  %15 = load ptr, ptr %14, align 8, !tbaa !36
  call void @N_VLinearSum(double noundef 1.000000e+00, ptr noundef %12, double noundef 1.000000e+00, ptr noundef %0, ptr noundef %15) #5
  %16 = load ptr, ptr %5, align 8, !tbaa !14
  %17 = getelementptr inbounds nuw i8, ptr %16, i64 184
  %18 = load ptr, ptr %17, align 8, !tbaa !30
  %19 = load ptr, ptr %4, align 8, !tbaa !34
  %20 = getelementptr inbounds nuw i8, ptr %19, i64 752
  %21 = load double, ptr %20, align 8, !tbaa !42
  %22 = getelementptr inbounds nuw i8, ptr %19, i64 584
  %23 = load ptr, ptr %22, align 8, !tbaa !36
  %24 = getelementptr inbounds nuw i8, ptr %16, i64 48
  %25 = load ptr, ptr %24, align 8, !tbaa !43
  %26 = getelementptr inbounds nuw i8, ptr %16, i64 104
  %27 = load ptr, ptr %26, align 8, !tbaa !44
  %28 = getelementptr inbounds nuw i8, ptr %16, i64 160
  %29 = load i32, ptr %28, align 8, !tbaa !45
  %30 = sext i32 %29 to i64
  %31 = getelementptr inbounds i32, ptr %27, i64 %30
  %32 = load i32, ptr %31, align 4, !tbaa !46
  %33 = sext i32 %32 to i64
  %34 = getelementptr inbounds ptr, ptr %25, i64 %33
  %35 = load ptr, ptr %34, align 8, !tbaa !47
  %36 = getelementptr inbounds nuw i8, ptr %19, i64 16
  %37 = load ptr, ptr %36, align 8, !tbaa !48
  %38 = call i32 %18(double noundef %21, ptr noundef %23, ptr noundef %35, ptr noundef %37) #5
  %39 = load ptr, ptr %5, align 8, !tbaa !14
  %40 = getelementptr inbounds nuw i8, ptr %39, i64 416
  %41 = load i64, ptr %40, align 8, !tbaa !49
  %42 = add nsw i64 %41, 1
  store i64 %42, ptr %40, align 8, !tbaa !49
  %43 = icmp slt i32 %38, 0
  br i1 %43, label %68, label %44

44:                                               ; preds = %9
  %.not11 = icmp eq i32 %38, 0
  br i1 %.not11, label %45, label %68

45:                                               ; preds = %44
  store double 1.000000e+00, ptr %6, align 16, !tbaa !50
  store ptr %0, ptr %7, align 16, !tbaa !47
  %46 = getelementptr inbounds nuw i8, ptr %6, i64 8
  store double -1.000000e+00, ptr %46, align 8, !tbaa !50
  %47 = getelementptr inbounds nuw i8, ptr %39, i64 136
  %48 = load ptr, ptr %47, align 8, !tbaa !51
  %49 = getelementptr inbounds nuw i8, ptr %7, i64 8
  store ptr %48, ptr %49, align 8, !tbaa !47
  %50 = getelementptr inbounds nuw i8, ptr %39, i64 192
  %51 = load double, ptr %50, align 8, !tbaa !52
  %52 = fneg double %51
  %53 = getelementptr inbounds nuw i8, ptr %6, i64 16
  store double %52, ptr %53, align 16, !tbaa !50
  %54 = getelementptr inbounds nuw i8, ptr %39, i64 48
  %55 = load ptr, ptr %54, align 8, !tbaa !43
  %56 = getelementptr inbounds nuw i8, ptr %39, i64 104
  %57 = load ptr, ptr %56, align 8, !tbaa !44
  %58 = getelementptr inbounds nuw i8, ptr %39, i64 160
  %59 = load i32, ptr %58, align 8, !tbaa !45
  %60 = sext i32 %59 to i64
  %61 = getelementptr inbounds i32, ptr %57, i64 %60
  %62 = load i32, ptr %61, align 4, !tbaa !46
  %63 = sext i32 %62 to i64
  %64 = getelementptr inbounds ptr, ptr %55, i64 %63
  %65 = load ptr, ptr %64, align 8, !tbaa !47
  %66 = getelementptr inbounds nuw i8, ptr %7, i64 16
  store ptr %65, ptr %66, align 16, !tbaa !47
  %67 = call i32 @N_VLinearCombination(i32 noundef 3, ptr noundef nonnull %6, ptr noundef nonnull %7, ptr noundef %1) #5
  %.not12 = icmp eq i32 %67, 0
  %. = select i1 %.not12, i32 0, i32 -28
  br label %68

68:                                               ; preds = %45, %44, %9, %3
  %.0 = phi i32 [ %8, %3 ], [ -8, %9 ], [ 9, %44 ], [ %., %45 ]
  call void @llvm.lifetime.end.p0(i64 24, ptr nonnull %7) #5
  call void @llvm.lifetime.end.p0(i64 24, ptr nonnull %6) #5
  call void @llvm.lifetime.end.p0(i64 8, ptr nonnull %5) #5
  call void @llvm.lifetime.end.p0(i64 8, ptr nonnull %4) #5
  ret i32 %.0
}